target datalayout = "e-m:e-p270:32:32-p271:32:32-p272:64:64-i64:64-i128:128-f80:128-n8:16:32:64-S128"
target triple = "x86_64-pc-linux-gnu"

%struct.tm = type { i32, i32, i32, i32, i32, i32, i32, i32, i32, i64, ptr }
%struct.asn1_string_st = type { i32, i32, ptr, i64 }

@.str.3 = private unnamed_addr constant [32 x i8] c"../openssl/crypto/asn1/a_time.c\00", align 1

; Function Attrs: nounwind uwtable
define internal i32 @is_utc(i32 noundef %0) #0 {
  %2 = alloca i32, align 4
  %3 = alloca i32, align 4
  store i32 %0, ptr %3, align 4, !tbaa !17
  %4 = load i32, ptr %3, align 4, !tbaa !17
  %5 = icmp sle i32 50, %4
  br i1 %5, label %6, label %10

6:                                                ; preds = %1
  %7 = load i32, ptr %3, align 4, !tbaa !17
  %8 = icmp sle i32 %7, 149
  br i1 %8, label %9, label %10

9:                                                ; preds = %6
  store i32 1, ptr %2, align 4
  br label %11

10:                                               ; preds = %6, %1
  store i32 0, ptr %2, align 4
  br label %11

11:                                               ; preds = %10, %9
  %12 = load i32, ptr %2, align 4
  ret i32 %12
}

; Function Attrs: nounwind uwtable
define dso_local i32 @ASN1_TIME_check(ptr noundef %0) #0 {
  %2 = alloca i32, align 4
  %3 = alloca ptr, align 8
  store ptr %0, ptr %3, align 8, !tbaa !13
  %4 = load ptr, ptr %3, align 8, !tbaa !13
  %5 = getelementptr inbounds nuw %struct.asn1_string_st, ptr %4, i32 0, i32 1
  %6 = load i32, ptr %5, align 4, !tbaa !20
  %7 = icmp eq i32 %6, 24
  br i1 %7, label %8, label %11

8:                                                ; preds = %1
  %9 = load ptr, ptr %3, align 8, !tbaa !13
  %10 = call i32 @ASN1_GENERALIZEDTIME_check(ptr noundef %9)
  store i32 %10, ptr %2, align 4
  br label %21

11:                                               ; preds = %1
  %12 = load ptr, ptr %3, align 8, !tbaa !13
  %13 = getelementptr inbounds nuw %struct.asn1_string_st, ptr %12, i32 0, i32 1
  %14 = load i32, ptr %13, align 4, !tbaa !20
  %15 = icmp eq i32 %14, 23
  br i1 %15, label %16, label %19

16:                                               ; preds = %11
  %17 = load ptr, ptr %3, align 8, !tbaa !13
  %18 = call i32 @ASN1_UTCTIME_check(ptr noundef %17)
  store i32 %18, ptr %2, align 4
  br label %21

19:                                               ; preds = %11
  br label %20

20:                                               ; preds = %19
  store i32 0, ptr %2, align 4
  br label %21

21:                                               ; preds = %20, %16, %8
  %22 = load i32, ptr %2, align 4
  ret i32 %22
}

; Function Attrs: nounwind uwtable
define dso_local i32 @ASN1_TIME_set_string_X509(ptr noundef %0, ptr noundef %1) #0 {
  %3 = alloca ptr, align 8
  %4 = alloca ptr, align 8
  %5 = alloca %struct.asn1_string_st, align 8
  %6 = alloca %struct.tm, align 8
  %7 = alloca i32, align 4
  store ptr %0, ptr %3, align 8, !tbaa !13
  store ptr %1, ptr %4, align 8, !tbaa !26
  call void @llvm.lifetime.start.p0(i64 24, ptr %5) #7
  call void @llvm.lifetime.start.p0(i64 56, ptr %6) #7
  call void @llvm.lifetime.start.p0(i64 4, ptr %7) #7
  store i32 0, ptr %7, align 4, !tbaa !17
  %8 = load ptr, ptr %4, align 8, !tbaa !26
  %9 = call i64 @strlen(ptr noundef %8) #8
  %10 = trunc i64 %9 to i32
  %11 = getelementptr inbounds nuw %struct.asn1_string_st, ptr %5, i32 0, i32 0
  store i32 %10, ptr %11, align 8, !tbaa !24
  %12 = load ptr, ptr %4, align 8, !tbaa !26
  %13 = getelementptr inbounds nuw %struct.asn1_string_st, ptr %5, i32 0, i32 2
  store ptr %12, ptr %13, align 8, !tbaa !25
  %14 = getelementptr inbounds nuw %struct.asn1_string_st, ptr %5, i32 0, i32 3
  store i64 256, ptr %14, align 8, !tbaa !23
  %15 = getelementptr inbounds nuw %struct.asn1_string_st, ptr %5, i32 0, i32 1
  store i32 23, ptr %15, align 4, !tbaa !20
  %16 = call i32 @ASN1_TIME_check(ptr noundef %5)
  %17 = icmp ne i32 %16, 0
  br i1 %17, label %24, label %18

18:                                               ; preds = %2
  %19 = getelementptr inbounds nuw %struct.asn1_string_st, ptr %5, i32 0, i32 1
  store i32 24, ptr %19, align 4, !tbaa !20
  %20 = call i32 @ASN1_TIME_check(ptr noundef %5)
  %21 = icmp ne i32 %20, 0
  br i1 %21, label %23, label %22

22:                                               ; preds = %18
  br label %81

23:                                               ; preds = %18
  br label %24

24:                                               ; preds = %23, %2
  %25 = load ptr, ptr %3, align 8, !tbaa !13
  %26 = icmp ne ptr %25, null
  br i1 %26, label %27, label %64

27:                                               ; preds = %24
  %28 = getelementptr inbounds nuw %struct.asn1_string_st, ptr %5, i32 0, i32 1
  %29 = load i32, ptr %28, align 4, !tbaa !20
  %30 = icmp eq i32 %29, 24
  br i1 %30, label %31, label %64

31:                                               ; preds = %27
  %32 = call i32 @ossl_asn1_time_to_tm(ptr noundef %6, ptr noundef %5)
  %33 = icmp ne i32 %32, 0
  br i1 %33, label %35, label %34

34:                                               ; preds = %31
  br label %81

35:                                               ; preds = %31
  %36 = getelementptr inbounds nuw %struct.tm, ptr %6, i32 0, i32 5
  %37 = load i32, ptr %36, align 4, !tbaa !27
  %38 = call i32 @is_utc(i32 noundef %37)
  %39 = icmp ne i32 %38, 0
  br i1 %39, label %40, label %63

40:                                               ; preds = %35
  %41 = getelementptr inbounds nuw %struct.asn1_string_st, ptr %5, i32 0, i32 0
  %42 = load i32, ptr %41, align 8, !tbaa !24
  %43 = sub nsw i32 %42, 2
  store i32 %43, ptr %41, align 8, !tbaa !24
  %44 = getelementptr inbounds nuw %struct.asn1_string_st, ptr %5, i32 0, i32 0
  %45 = load i32, ptr %44, align 8, !tbaa !24
  %46 = add nsw i32 %45, 1
  %47 = sext i32 %46 to i64
  %48 = call noalias ptr @CRYPTO_zalloc(i64 noundef %47, ptr noundef @.str.3, i32 noundef 426)
  %49 = getelementptr inbounds nuw %struct.asn1_string_st, ptr %5, i32 0, i32 2
  store ptr %48, ptr %49, align 8, !tbaa !25
  %50 = getelementptr inbounds nuw %struct.asn1_string_st, ptr %5, i32 0, i32 2
  %51 = load ptr, ptr %50, align 8, !tbaa !25
  %52 = icmp eq ptr %51, null
  br i1 %52, label %53, label %54

53:                                               ; preds = %40
  br label %81

54:                                               ; preds = %40
  %55 = getelementptr inbounds nuw %struct.asn1_string_st, ptr %5, i32 0, i32 2
  %56 = load ptr, ptr %55, align 8, !tbaa !25
  %57 = load ptr, ptr %4, align 8, !tbaa !26
  %58 = getelementptr inbounds i8, ptr %57, i64 2
  %59 = getelementptr inbounds nuw %struct.asn1_string_st, ptr %5, i32 0, i32 0
  %60 = load i32, ptr %59, align 8, !tbaa !24
  %61 = sext i32 %60 to i64
  call void @llvm.memcpy.p0.p0.i64(ptr align 1 %56, ptr align 1 %58, i64 %61, i1 false)
  %62 = getelementptr inbounds nuw %struct.asn1_string_st, ptr %5, i32 0, i32 1
  store i32 23, ptr %62, align 4, !tbaa !20
  br label %63

63:                                               ; preds = %54, %35
  br label %64

64:                                               ; preds = %63, %27, %24
  %65 = load ptr, ptr %3, align 8, !tbaa !13
  %66 = icmp eq ptr %65, null
  br i1 %66, label %71, label %67

67:                                               ; preds = %64
  %68 = load ptr, ptr %3, align 8, !tbaa !13
  %69 = call i32 @ASN1_STRING_copy(ptr noundef %68, ptr noundef %5)
  %70 = icmp ne i32 %69, 0
  br i1 %70, label %71, label %72

71:                                               ; preds = %67, %64
  store i32 1, ptr %7, align 4, !tbaa !17
  br label %72

72:                                               ; preds = %71, %67
  %73 = getelementptr inbounds nuw %struct.asn1_string_st, ptr %5, i32 0, i32 2
  %74 = load ptr, ptr %73, align 8, !tbaa !25
  %75 = load ptr, ptr %4, align 8, !tbaa !26
  %76 = icmp ne ptr %74, %75
  br i1 %76, label %77, label %80

77:                                               ; preds = %72
  %78 = getelementptr inbounds nuw %struct.asn1_string_st, ptr %5, i32 0, i32 2
  %79 = load ptr, ptr %78, align 8, !tbaa !25
  call void @CRYPTO_free(ptr noundef %79, ptr noundef @.str.3, i32 noundef 438)
  br label %80

80:                                               ; preds = %77, %72
  br label %81

81:                                               ; preds = %80, %53, %34, %22
  %82 = load i32, ptr %7, align 4, !tbaa !17
  call void @llvm.lifetime.end.p0(i64 4, ptr %7) #7
  call void @llvm.lifetime.end.p0(i64 56, ptr %6) #7
  call void @llvm.lifetime.end.p0(i64 24, ptr %5) #7
  ret i32 %82
}