; Function Attrs: nounwind uwtable
define dso_local range(i32 0, 2) i32 @ASN1_TIME_set_string_X509(ptr noundef %0, ptr noundef %1) local_unnamed_addr #1 {
ASN1_TIME_check.exit:
  %2 = alloca %struct.asn1_string_st, align 8
  %3 = alloca %struct.tm, align 8
  call void @llvm.lifetime.start.p0(i64 24, ptr nonnull %2) #8
  call void @llvm.lifetime.start.p0(i64 56, ptr nonnull %3) #8
  %4 = tail call i64 @strlen(ptr noundef nonnull dereferenceable(1) %1) #9
  %5 = trunc i64 %4 to i32
  store i32 %5, ptr %2, align 8, !tbaa !13
  %6 = getelementptr inbounds nuw i8, ptr %2, i64 8
  store ptr %1, ptr %6, align 8, !tbaa !14
  %7 = getelementptr inbounds nuw i8, ptr %2, i64 16
  store i64 256, ptr %7, align 8, !tbaa !12
  %8 = getelementptr inbounds nuw i8, ptr %2, i64 4
  store i32 23, ptr %8, align 4, !tbaa !4
  %9 = call i32 @ASN1_UTCTIME_check(ptr noundef nonnull %2) #8
  %.not = icmp eq i32 %9, 0
  br i1 %.not, label %ASN1_TIME_check.exit18, label %11

ASN1_TIME_check.exit18:                           ; preds = %ASN1_TIME_check.exit
  store i32 24, ptr %8, align 4, !tbaa !4
  %10 = call i32 @ASN1_GENERALIZEDTIME_check(ptr noundef nonnull %2) #8
  %.not12 = icmp eq i32 %10, 0
  br i1 %.not12, label %39, label %11

11:                                               ; preds = %ASN1_TIME_check.exit18, %ASN1_TIME_check.exit
  %12 = icmp ne ptr %0, null
  %13 = load i32, ptr %8, align 4
  %14 = icmp eq i32 %13, 24
  %or.cond = select i1 %12, i1 %14, i1 false
  br i1 %or.cond, label %15, label %32

15:                                               ; preds = %11
  %16 = call i32 @ossl_asn1_time_to_tm(ptr noundef nonnull %3, ptr noundef nonnull %2)
  %.not13 = icmp eq i32 %16, 0
  br i1 %.not13, label %39, label %17

17:                                               ; preds = %15
  %18 = getelementptr inbounds nuw i8, ptr %3, i64 20
  %19 = load i32, ptr %18, align 4, !tbaa !17
  %20 = add i32 %19, -150
  %or.cond.i = icmp ult i32 %20, -100
  br i1 %or.cond.i, label %.thread, label %21

21:                                               ; preds = %17
  %22 = load i32, ptr %2, align 8, !tbaa !13
  %23 = add nsw i32 %22, -2
  store i32 %23, ptr %2, align 8, !tbaa !13
  %24 = add nsw i32 %22, -1
  %25 = sext i32 %24 to i64
  %26 = call noalias ptr @CRYPTO_zalloc(i64 noundef %25, ptr noundef nonnull @.str.3, i32 noundef 426) #8
  store ptr %26, ptr %6, align 8, !tbaa !14
  %27 = icmp eq ptr %26, null
  br i1 %27, label %39, label %28

28:                                               ; preds = %21
  %29 = getelementptr inbounds nuw i8, ptr %1, i64 2
  %30 = load i32, ptr %2, align 8, !tbaa !13
  %31 = sext i32 %30 to i64
  call void @llvm.memcpy.p0.p0.i64(ptr nonnull align 1 %26, ptr nonnull align 1 %29, i64 %31, i1 false)
  store i32 23, ptr %8, align 4, !tbaa !4
  br label %.thread

32:                                               ; preds = %11
  %33 = icmp eq ptr %0, null
  br i1 %33, label %35, label %.thread

.thread:                                          ; preds = %28, %17, %32
  %34 = call i32 @ASN1_STRING_copy(ptr noundef nonnull %0, ptr noundef nonnull %2) #8
  %.not15 = icmp eq i32 %34, 0
  br i1 %.not15, label %36, label %35

35:                                               ; preds = %.thread, %32
  br label %36

36:                                               ; preds = %35, %.thread
  %.1 = phi i32 [ 1, %35 ], [ 0, %.thread ]
  %37 = load ptr, ptr %6, align 8, !tbaa !14
  %.not16 = icmp eq ptr %37, %1
  br i1 %.not16, label %39, label %38

38:                                               ; preds = %36
  call void @CRYPTO_free(ptr noundef %37, ptr noundef nonnull @.str.3, i32 noundef 438) #8
  br label %39

39:                                               ; preds = %36, %38, %21, %15, %ASN1_TIME_check.exit18
  %.0 = phi i32 [ 0, %21 ], [ %.1, %38 ], [ %.1, %36 ], [ 0, %15 ], [ 0, %ASN1_TIME_check.exit18 ]
  call void @llvm.lifetime.end.p0(i64 56, ptr nonnull %3) #8
  call void @llvm.lifetime.end.p0(i64 24, ptr nonnull %2) #8
  ret i32 %.0
}